; Function Attrs: mustprogress uwtable
define noundef signext i8 @vzone_getTZURL_77(ptr noundef nonnull %0, ptr noundef nonnull readonly align 8 captures(none) dereferenceable(8) %1, ptr noundef nonnull writeonly align 4 captures(none) dereferenceable(4) %2) local_unnamed_addr #0 personality ptr @__gxx_personality_v0 {
  %4 = alloca %"class.icu_77::UnicodeString", align 8
  call void @llvm.lifetime.start.p0(i64 64, ptr nonnull %4) #7
  store ptr getelementptr inbounds nuw inrange(-16, 88) (i8, ptr @_ZTVN6icu_7713UnicodeStringE, i64 16), ptr %4, align 8, !tbaa !10
  %5 = getelementptr inbounds nuw i8, ptr %4, i64 8
  store i16 2, ptr %5, align 8, !tbaa !12
  %6 = invoke noundef signext i8 @_ZNK6icu_779VTimeZone8getTZURLERNS_13UnicodeStringE(ptr noundef nonnull align 8 dereferenceable(288) %0, ptr noundef nonnull align 8 dereferenceable(64) %4)
          to label %7 unwind label %25

7:                                                ; preds = %3
  %8 = load i16, ptr %5, align 8, !tbaa !12
  %9 = icmp slt i16 %8, 0
  %10 = ashr i16 %8, 5
  %11 = sext i16 %10 to i32
  %12 = getelementptr inbounds nuw i8, ptr %4, i64 12
  %13 = load i32, ptr %12, align 4
  %14 = select i1 %9, i32 %13, i32 %11
  store i32 %14, ptr %2, align 4, !tbaa !13
  %15 = load ptr, ptr %1, align 8, !tbaa !15
  %16 = and i16 %8, 17
  %.not.i = icmp eq i16 %16, 0
  br i1 %.not.i, label %17, label %_ZNK6icu_7713UnicodeString9getBufferEv.exit

17:                                               ; preds = %7
  %18 = and i16 %8, 2
  %.not2.i = icmp eq i16 %18, 0
  br i1 %.not2.i, label %21, label %19

19:                                               ; preds = %17
  %20 = getelementptr inbounds nuw i8, ptr %4, i64 10
  br label %_ZNK6icu_7713UnicodeString9getBufferEv.exit

21:                                               ; preds = %17
  %22 = getelementptr inbounds nuw i8, ptr %4, i64 24
  %23 = load ptr, ptr %22, align 8, !tbaa !12
  br label %_ZNK6icu_7713UnicodeString9getBufferEv.exit

_ZNK6icu_7713UnicodeString9getBufferEv.exit:      ; preds = %7, %19, %21
  %.0.i = phi ptr [ %20, %19 ], [ %23, %21 ], [ null, %7 ]
  %24 = sext i32 %14 to i64
  call void @llvm.memcpy.p0.p0.i64(ptr align 2 %15, ptr align 2 %.0.i, i64 %24, i1 false)
  call void @_ZN6icu_7713UnicodeStringD1Ev(ptr noundef nonnull align 8 dereferenceable(64) %4) #7
  call void @llvm.lifetime.end.p0(i64 64, ptr nonnull %4) #7
  ret i8 %6

25:                                               ; preds = %3
  %26 = landingpad { ptr, i32 }
          cleanup
  call void @_ZN6icu_7713UnicodeStringD1Ev(ptr noundef nonnull align 8 dereferenceable(64) %4) #7
  call void @llvm.lifetime.end.p0(i64 64, ptr nonnull %4) #7
  resume { ptr, i32 } %26
}